; ModuleID = 'source-C-CXX/2/2962.c'
source_filename = "source-C-CXX/2/2962.c"
target datalayout = "e-m:e-p270:32:32-p271:32:32-p272:64:64-i64:64-f80:128-n8:16:32:64-S128"
target triple = "x86_64-pc-linux-gnu"

@.str = private unnamed_addr constant [3 x i8] c"%d\00", align 1
@.str.1 = private unnamed_addr constant [3 x i8] c"no\00", align 1
@.str.2 = private unnamed_addr constant [4 x i8] c"yes\00", align 1

; Function Attrs: nofree nounwind sspstrong uwtable
define dso_local i32 @main() local_unnamed_addr #0 {
  %1 = alloca [1000 x i32], align 16
  %2 = alloca i32, align 4
  %3 = alloca i32, align 4
  %4 = bitcast [1000 x i32]* %1 to i8*
  call void @llvm.lifetime.start.p0i8(i64 4000, i8* nonnull %4) #3
  %5 = bitcast i32* %2 to i8*
  call void @llvm.lifetime.start.p0i8(i64 4, i8* nonnull %5) #3
  %6 = bitcast i32* %3 to i8*
  call void @llvm.lifetime.start.p0i8(i64 4, i8* nonnull %6) #3
  %7 = call i32 (i8*, ...) @__isoc99_scanf(i8* getelementptr inbounds ([3 x i8], [3 x i8]* @.str, i64 0, i64 0), i32* nonnull %2)
  %8 = call i32 (i8*, ...) @__isoc99_scanf(i8* getelementptr inbounds ([3 x i8], [3 x i8]* @.str, i64 0, i64 0), i32* nonnull %3)
  %9 = load i32, i32* %2, align 4, !tbaa !5
  %10 = icmp sgt i32 %9, 0
  br i1 %10, label %37, label %47

11:                                               ; preds = %37
  %12 = load i32, i32* %3, align 4
  %13 = icmp sgt i32 %42, 0
  br i1 %13, label %14, label %47

14:                                               ; preds = %11
  %15 = zext i32 %42 to i64
  %16 = zext i32 %42 to i64
  br label %17

17:                                               ; preds = %14, %33
  %18 = phi i64 [ 0, %14 ], [ %34, %33 ]
  %19 = phi i1 [ true, %14 ], [ %35, %33 ]
  %20 = getelementptr inbounds [1000 x i32], [1000 x i32]* %1, i64 0, i64 %18
  br label %21

21:                                               ; preds = %17, %30
  %22 = phi i64 [ 0, %17 ], [ %31, %30 ]
  %23 = icmp eq i64 %22, %18
  br i1 %23, label %30, label %24

24:                                               ; preds = %21
  %25 = load i32, i32* %20, align 4, !tbaa !5
  %26 = getelementptr inbounds [1000 x i32], [1000 x i32]* %1, i64 0, i64 %22
  %27 = load i32, i32* %26, align 4, !tbaa !5
  %28 = add nsw i32 %27, %25
  %29 = icmp eq i32 %28, %12
  br i1 %29, label %45, label %30

30:                                               ; preds = %24, %21
  %31 = add nuw nsw i64 %22, 1
  %32 = icmp eq i64 %31, %16
  br i1 %32, label %33, label %21, !llvm.loop !9

33:                                               ; preds = %30
  %34 = add nuw nsw i64 %18, 1
  %35 = icmp ult i64 %34, %15
  %36 = icmp eq i64 %34, %16
  br i1 %36, label %47, label %17, !llvm.loop !11

37:                                               ; preds = %0, %37
  %38 = phi i64 [ %41, %37 ], [ 0, %0 ]
  %39 = getelementptr inbounds [1000 x i32], [1000 x i32]* %1, i64 0, i64 %38
  %40 = call i32 (i8*, ...) @__isoc99_scanf(i8* getelementptr inbounds ([3 x i8], [3 x i8]* @.str, i64 0, i64 0), i32* nonnull %39)
  %41 = add nuw nsw i64 %38, 1
  %42 = load i32, i32* %2, align 4, !tbaa !5
  %43 = sext i32 %42 to i64
  %44 = icmp slt i64 %41, %43
  br i1 %44, label %37, label %11, !llvm.loop !12

45:                                               ; preds = %24
  %46 = select i1 %19, i8* getelementptr inbounds ([4 x i8], [4 x i8]* @.str.2, i64 0, i64 0), i8* getelementptr inbounds ([3 x i8], [3 x i8]* @.str.1, i64 0, i64 0)
  br label %47

47:                                               ; preds = %33, %45, %11, %0
  %48 = phi i8* [ getelementptr inbounds ([3 x i8], [3 x i8]* @.str.1, i64 0, i64 0), %0 ], [ getelementptr inbounds ([3 x i8], [3 x i8]* @.str.1, i64 0, i64 0), %11 ], [ %46, %45 ], [ getelementptr inbounds ([3 x i8], [3 x i8]* @.str.1, i64 0, i64 0), %33 ]
  %49 = call i32 (i8*, ...) @printf(i8* nonnull dereferenceable(1) %48)
  call void @llvm.lifetime.end.p0i8(i64 4, i8* nonnull %6) #3
  call void @llvm.lifetime.end.p0i8(i64 4, i8* nonnull %5) #3
  call void @llvm.lifetime.end.p0i8(i64 4000, i8* nonnull %4) #3
  ret i32 0
}

; Function Attrs: argmemonly mustprogress nofree nosync nounwind willreturn
declare void @llvm.lifetime.start.p0i8(i64 immarg, i8* nocapture) #1

; Function Attrs: nofree nounwind
declare noundef i32 @__isoc99_scanf(i8* nocapture noundef readonly, ...) local_unnamed_addr #2

; Function Attrs: nofree nounwind
declare noundef i32 @printf(i8* nocapture noundef readonly, ...) local_unnamed_addr #2

; Function Attrs: argmemonly mustprogress nofree nosync nounwind willreturn
declare void @llvm.lifetime.end.p0i8(i64 immarg, i8* nocapture) #1


!llvm.module.flags = !{!0, !1, !2, !3}
!llvm.ident = !{!4}

!0 = !{i32 1, !"wchar_size", i32 4}
!1 = !{i32 7, !"PIC Level", i32 2}
!2 = !{i32 7, !"PIE Level", i32 2}
!3 = !{i32 7, !"uwtable", i32 1}
!4 = !{!"clang version 13.0.0"}
!5 = !{!6, !6, i64 0}
!6 = !{!"int", !7, i64 0}
!7 = !{!"omnipotent char", !8, i64 0}
!8 = !{!"Simple C/C++ TBAA"}
!9 = distinct !{!9, !10}
!10 = !{!"llvm.loop.mustprogress"}
!11 = distinct !{!11, !10}
!12 = distinct !{!12, !10}
